target datalayout = "e-m:e-p270:32:32-p271:32:32-p272:64:64-i64:64-i128:128-f80:128-n8:16:32:64-S128"
target triple = "x86_64-pc-linux-gnu"

%struct.__va_list_tag = type { i32, i32, ptr, ptr }
%struct.enumARG = type { ptr, i32, i8, i8 }

; Function Attrs: nounwind uwtable
define internal ptr @Make_Enum_Type(ptr noundef %0) #0 {
  %2 = alloca ptr, align 8
  %3 = alloca ptr, align 8
  %4 = alloca i32, align 4
  %5 = alloca ptr, align 8
  %6 = alloca i32, align 4
  %7 = alloca i32, align 4
  store ptr %0, ptr %2, align 8, !tbaa !4
  call void @llvm.lifetime.start.p0(i64 8, ptr %3) #7
  %8 = call noalias ptr @malloc(i64 noundef 16) #8
  store ptr %8, ptr %3, align 8, !tbaa !9
  %9 = load ptr, ptr %3, align 8, !tbaa !9
  %10 = icmp ne ptr %9, null
  br i1 %10, label %11, label %99

11:                                               ; preds = %1
  call void @llvm.lifetime.start.p0(i64 4, ptr %4) #7
  store i32 0, ptr %4, align 4, !tbaa !10
  call void @llvm.lifetime.start.p0(i64 8, ptr %5) #7
  store ptr null, ptr %5, align 8, !tbaa !12
  call void @llvm.lifetime.start.p0(i64 4, ptr %6) #7
  call void @llvm.lifetime.start.p0(i64 4, ptr %7) #7
  %12 = load ptr, ptr %2, align 8, !tbaa !4
  %13 = getelementptr inbounds [1 x %struct.__va_list_tag], ptr %12, i64 0, i64 0
  %14 = getelementptr inbounds nuw %struct.__va_list_tag, ptr %13, i32 0, i32 0
  %15 = load i32, ptr %14, align 8
  %16 = icmp ule i32 %15, 40
  br i1 %16, label %17, label %22

17:                                               ; preds = %11
  %18 = getelementptr inbounds nuw %struct.__va_list_tag, ptr %13, i32 0, i32 3
  %19 = load ptr, ptr %18, align 8
  %20 = getelementptr i8, ptr %19, i32 %15
  %21 = add i32 %15, 8
  store i32 %21, ptr %14, align 8
  br label %26

22:                                               ; preds = %11
  %23 = getelementptr inbounds nuw %struct.__va_list_tag, ptr %13, i32 0, i32 2
  %24 = load ptr, ptr %23, align 8
  %25 = getelementptr i8, ptr %24, i32 8
  store ptr %25, ptr %23, align 8
  br label %26

26:                                               ; preds = %22, %17
  %27 = phi ptr [ %20, %17 ], [ %24, %22 ]
  %28 = load ptr, ptr %27, align 8, !tbaa !12
  %29 = load ptr, ptr %3, align 8, !tbaa !9
  %30 = getelementptr inbounds nuw %struct.enumARG, ptr %29, i32 0, i32 0
  store ptr %28, ptr %30, align 8, !tbaa !14
  %31 = load ptr, ptr %2, align 8, !tbaa !4
  %32 = getelementptr inbounds [1 x %struct.__va_list_tag], ptr %31, i64 0, i64 0
  %33 = getelementptr inbounds nuw %struct.__va_list_tag, ptr %32, i32 0, i32 0
  %34 = load i32, ptr %33, align 8
  %35 = icmp ule i32 %34, 40
  br i1 %35, label %36, label %41

36:                                               ; preds = %26
  %37 = getelementptr inbounds nuw %struct.__va_list_tag, ptr %32, i32 0, i32 3
  %38 = load ptr, ptr %37, align 8
  %39 = getelementptr i8, ptr %38, i32 %34
  %40 = add i32 %34, 8
  store i32 %40, ptr %33, align 8
  br label %45

41:                                               ; preds = %26
  %42 = getelementptr inbounds nuw %struct.__va_list_tag, ptr %32, i32 0, i32 2
  %43 = load ptr, ptr %42, align 8
  %44 = getelementptr i8, ptr %43, i32 8
  store ptr %44, ptr %42, align 8
  br label %45

45:                                               ; preds = %41, %36
  %46 = phi ptr [ %39, %36 ], [ %43, %41 ]
  %47 = load i32, ptr %46, align 4, !tbaa !10
  store i32 %47, ptr %6, align 4, !tbaa !10
  %48 = load ptr, ptr %2, align 8, !tbaa !4
  %49 = getelementptr inbounds [1 x %struct.__va_list_tag], ptr %48, i64 0, i64 0
  %50 = getelementptr inbounds nuw %struct.__va_list_tag, ptr %49, i32 0, i32 0
  %51 = load i32, ptr %50, align 8
  %52 = icmp ule i32 %51, 40
  br i1 %52, label %53, label %58

53:                                               ; preds = %45
  %54 = getelementptr inbounds nuw %struct.__va_list_tag, ptr %49, i32 0, i32 3
  %55 = load ptr, ptr %54, align 8
  %56 = getelementptr i8, ptr %55, i32 %51
  %57 = add i32 %51, 8
  store i32 %57, ptr %50, align 8
  br label %62

58:                                               ; preds = %45
  %59 = getelementptr inbounds nuw %struct.__va_list_tag, ptr %49, i32 0, i32 2
  %60 = load ptr, ptr %59, align 8
  %61 = getelementptr i8, ptr %60, i32 8
  store ptr %61, ptr %59, align 8
  br label %62

62:                                               ; preds = %58, %53
  %63 = phi ptr [ %56, %53 ], [ %60, %58 ]
  %64 = load i32, ptr %63, align 4, !tbaa !10
  store i32 %64, ptr %7, align 4, !tbaa !10
  %65 = load i32, ptr %6, align 4, !tbaa !10
  %66 = icmp ne i32 %65, 0
  %67 = select i1 %66, i32 1, i32 0
  %68 = icmp ne i32 %67, 0
  %69 = load ptr, ptr %3, align 8, !tbaa !9
  %70 = getelementptr inbounds nuw %struct.enumARG, ptr %69, i32 0, i32 2
  %71 = zext i1 %68 to i8
  store i8 %71, ptr %70, align 4, !tbaa !17
  %72 = load i32, ptr %7, align 4, !tbaa !10
  %73 = icmp ne i32 %72, 0
  %74 = select i1 %73, i32 1, i32 0
  %75 = icmp ne i32 %74, 0
  %76 = load ptr, ptr %3, align 8, !tbaa !9
  %77 = getelementptr inbounds nuw %struct.enumARG, ptr %76, i32 0, i32 3
  %78 = zext i1 %75 to i8
  store i8 %78, ptr %77, align 1, !tbaa !18
  %79 = load ptr, ptr %3, align 8, !tbaa !9
  %80 = getelementptr inbounds nuw %struct.enumARG, ptr %79, i32 0, i32 0
  %81 = load ptr, ptr %80, align 8, !tbaa !14
  store ptr %81, ptr %5, align 8, !tbaa !12
  br label %82

82:                                               ; preds = %92, %62
  %83 = load ptr, ptr %5, align 8, !tbaa !12
  %84 = icmp ne ptr %83, null
  br i1 %84, label %85, label %90

85:                                               ; preds = %82
  %86 = load ptr, ptr %5, align 8, !tbaa !12
  %87 = getelementptr inbounds nuw ptr, ptr %86, i32 1
  store ptr %87, ptr %5, align 8, !tbaa !12
  %88 = load ptr, ptr %86, align 8, !tbaa !19
  %89 = icmp ne ptr %88, null
  br label %90

90:                                               ; preds = %85, %82
  %91 = phi i1 [ false, %82 ], [ %89, %85 ]
  br i1 %91, label %92, label %95

92:                                               ; preds = %90
  %93 = load i32, ptr %4, align 4, !tbaa !10
  %94 = add nsw i32 %93, 1
  store i32 %94, ptr %4, align 4, !tbaa !10
  br label %82, !llvm.loop !21

95:                                               ; preds = %90
  %96 = load i32, ptr %4, align 4, !tbaa !10
  %97 = load ptr, ptr %3, align 8, !tbaa !9
  %98 = getelementptr inbounds nuw %struct.enumARG, ptr %97, i32 0, i32 1
  store i32 %96, ptr %98, align 8, !tbaa !23
  call void @llvm.lifetime.end.p0(i64 4, ptr %7) #7
  call void @llvm.lifetime.end.p0(i64 4, ptr %6) #7
  call void @llvm.lifetime.end.p0(i64 8, ptr %5) #7
  call void @llvm.lifetime.end.p0(i64 4, ptr %4) #7
  br label %99

99:                                               ; preds = %95, %1
  %100 = load ptr, ptr %3, align 8, !tbaa !9
  call void @llvm.lifetime.end.p0(i64 8, ptr %3) #7
  ret ptr %100
}