; Function Attrs: nofree nounwind uwtable
define internal noalias noundef ptr @Make_Enum_Type(ptr noundef captures(none) %0) #0 {
  %2 = tail call noalias dereferenceable_or_null(16) ptr @malloc(i64 noundef 16) #9
  %.not = icmp eq ptr %2, null
  br i1 %.not, label %59, label %3

3:                                                ; preds = %1
  %4 = load i32, ptr %0, align 8
  %5 = icmp ult i32 %4, 41
  br i1 %5, label %10, label %.thread

.thread:                                          ; preds = %3
  %6 = getelementptr inbounds nuw i8, ptr %0, i64 8
  %7 = load ptr, ptr %6, align 8
  %8 = getelementptr i8, ptr %7, i64 8
  store ptr %8, ptr %6, align 8
  %9 = load ptr, ptr %7, align 8, !tbaa !4
  store ptr %9, ptr %2, align 8, !tbaa !9
  br label %.thread30

10:                                               ; preds = %3
  %11 = getelementptr inbounds nuw i8, ptr %0, i64 16
  %12 = load ptr, ptr %11, align 8
  %13 = zext nneg i32 %4 to i64
  %14 = getelementptr i8, ptr %12, i64 %13
  %15 = add nuw nsw i32 %4, 8
  store i32 %15, ptr %0, align 8
  %16 = load ptr, ptr %14, align 8, !tbaa !4
  store ptr %16, ptr %2, align 8, !tbaa !9
  %17 = icmp ult i32 %4, 33
  br i1 %17, label %23, label %.thread30

.thread30:                                        ; preds = %10, %.thread
  %18 = phi ptr [ %9, %.thread ], [ %16, %10 ]
  %19 = getelementptr inbounds nuw i8, ptr %0, i64 8
  %20 = load ptr, ptr %19, align 8
  %21 = getelementptr i8, ptr %20, i64 8
  store ptr %21, ptr %19, align 8
  %22 = load i32, ptr %20, align 4, !tbaa !13
  br label %37

23:                                               ; preds = %10
  %24 = getelementptr inbounds nuw i8, ptr %0, i64 16
  %25 = load ptr, ptr %24, align 8
  %26 = zext nneg i32 %15 to i64
  %27 = getelementptr i8, ptr %25, i64 %26
  %28 = add nuw nsw i32 %4, 16
  store i32 %28, ptr %0, align 8
  %29 = load i32, ptr %27, align 4, !tbaa !13
  %30 = icmp ult i32 %4, 25
  br i1 %30, label %31, label %37

31:                                               ; preds = %23
  %32 = getelementptr inbounds nuw i8, ptr %0, i64 16
  %33 = load ptr, ptr %32, align 8
  %34 = zext nneg i32 %28 to i64
  %35 = getelementptr i8, ptr %33, i64 %34
  %36 = add nuw nsw i32 %4, 24
  store i32 %36, ptr %0, align 8
  br label %43

37:                                               ; preds = %.thread30, %23
  %38 = phi i32 [ %22, %.thread30 ], [ %29, %23 ]
  %39 = phi ptr [ %18, %.thread30 ], [ %16, %23 ]
  %40 = getelementptr inbounds nuw i8, ptr %0, i64 8
  %41 = load ptr, ptr %40, align 8
  %42 = getelementptr i8, ptr %41, i64 8
  store ptr %42, ptr %40, align 8
  br label %43

43:                                               ; preds = %37, %31
  %44 = phi i32 [ %29, %31 ], [ %38, %37 ]
  %45 = phi ptr [ %16, %31 ], [ %39, %37 ]
  %46 = phi ptr [ %35, %31 ], [ %41, %37 ]
  %47 = load i32, ptr %46, align 4, !tbaa !13
  %48 = icmp ne i32 %44, 0
  %49 = getelementptr inbounds nuw i8, ptr %2, i64 12
  %50 = zext i1 %48 to i8
  store i8 %50, ptr %49, align 4, !tbaa !14
  %51 = icmp ne i32 %47, 0
  %52 = getelementptr inbounds nuw i8, ptr %2, i64 13
  %53 = zext i1 %51 to i8
  store i8 %53, ptr %52, align 1, !tbaa !15
  %.not2023 = icmp eq ptr %45, null
  br i1 %.not2023, label %.critedge, label %.lr.ph.preheader

.lr.ph.preheader:                                 ; preds = %43
  %54 = load ptr, ptr %45, align 8, !tbaa !16
  %.not2131 = icmp eq ptr %54, null
  br i1 %.not2131, label %.critedge, label %.lr.ph

.lr.ph:                                           ; preds = %.lr.ph.preheader, %.lr.ph
  %.0152433 = phi ptr [ %55, %.lr.ph ], [ %45, %.lr.ph.preheader ]
  %.02532 = phi i32 [ %56, %.lr.ph ], [ 0, %.lr.ph.preheader ]
  %55 = getelementptr inbounds nuw i8, ptr %.0152433, i64 8
  %56 = add nuw nsw i32 %.02532, 1
  %57 = load ptr, ptr %55, align 8, !tbaa !16
  %.not21 = icmp eq ptr %57, null
  br i1 %.not21, label %.critedge, label %.lr.ph

.critedge:                                        ; preds = %.lr.ph, %.lr.ph.preheader, %43
  %.0.lcssa = phi i32 [ 0, %43 ], [ 0, %.lr.ph.preheader ], [ %56, %.lr.ph ]
  %58 = getelementptr inbounds nuw i8, ptr %2, i64 8
  store i32 %.0.lcssa, ptr %58, align 8, !tbaa !18
  br label %59

59:                                               ; preds = %.critedge, %1
  ret ptr %2
}